; Function Attrs: nounwind uwtable
define noundef i32 @pmix_server_cache_job_info(ptr noundef %0, ptr noundef %1) local_unnamed_addr #0 {
  %3 = alloca ptr, align 8
  call void @llvm.lifetime.start.p0(i64 8, ptr nonnull %3) #17
  %4 = load i64, ptr getelementptr inbounds nuw (i8, ptr @prte_info_item_t_class, i64 56), align 8, !tbaa !130
  %5 = tail call noalias noundef ptr @malloc(i64 noundef %4) #22
  %6 = load i32, ptr @pmix_class_init_epoch, align 4, !tbaa !51
  %7 = load i32, ptr getelementptr inbounds nuw (i8, ptr @prte_info_item_t_class, i64 32), align 8, !tbaa !60
  %.not.i = icmp eq i32 %6, %7
  br i1 %.not.i, label %9, label %8

8:                                                ; preds = %2
  tail call void @pmix_class_initialize(ptr noundef nonnull @prte_info_item_t_class) #17
  br label %9

9:                                                ; preds = %8, %2
  %.not22.i = icmp eq ptr %5, null
  br i1 %.not22.i, label %pmix_obj_new_tma.exit, label %10

10:                                               ; preds = %9
  %11 = tail call i32 @pthread_mutex_init(ptr noundef nonnull %5, ptr noundef null) #17
  %12 = getelementptr inbounds nuw i8, ptr %5, i64 40
  store ptr @prte_info_item_t_class, ptr %12, align 8, !tbaa !53
  %13 = getelementptr inbounds nuw i8, ptr %5, i64 48
  store i32 1, ptr %13, align 8, !tbaa !52
  %14 = getelementptr inbounds nuw i8, ptr %5, i64 56
  %15 = getelementptr inbounds nuw i8, ptr %5, i64 96
  tail call void @llvm.memset.p0.i64(ptr noundef nonnull align 8 dereferenceable(32) %14, i8 0, i64 32, i1 false)
  tail call void @llvm.memset.p0.i64(ptr noundef nonnull align 8 dereferenceable(24) %15, i8 0, i64 24, i1 false)
  %16 = load ptr, ptr getelementptr inbounds nuw (i8, ptr @prte_info_item_t_class, i64 40), align 8, !tbaa !61
  %17 = load ptr, ptr %16, align 8, !tbaa !32
  %.not6.i.i = icmp eq ptr %17, null
  br i1 %.not6.i.i, label %pmix_obj_new_tma.exit, label %.lr.ph.i.i

.lr.ph.i.i:                                       ; preds = %10, %.lr.ph.i.i
  %18 = phi ptr [ %20, %.lr.ph.i.i ], [ %17, %10 ]
  %.07.i.i = phi ptr [ %19, %.lr.ph.i.i ], [ %16, %10 ]
  tail call void %18(ptr noundef nonnull %5) #17
  %19 = getelementptr inbounds nuw i8, ptr %.07.i.i, i64 8
  %20 = load ptr, ptr %19, align 8, !tbaa !32
  %.not.i.i = icmp eq ptr %20, null
  br i1 %.not.i.i, label %pmix_obj_new_tma.exit, label %.lr.ph.i.i, !llvm.loop !62

pmix_obj_new_tma.exit:                            ; preds = %.lr.ph.i.i, %9, %10
  %21 = getelementptr inbounds nuw i8, ptr %5, i64 144
  %22 = tail call i32 @PMIx_Info_xfer(ptr noundef nonnull %21, ptr noundef %1) #17
  %23 = getelementptr inbounds nuw i8, ptr %0, i64 792
  %24 = call zeroext i1 @prte_get_attribute(ptr noundef nonnull %23, i16 noundef zeroext 252, ptr noundef nonnull %3, i16 noundef zeroext 31) #17
  br i1 %24, label %25, label %36

25:                                               ; preds = %pmix_obj_new_tma.exit
  %26 = load ptr, ptr %3, align 8, !tbaa !158
  %27 = getelementptr inbounds nuw i8, ptr %26, i64 120
  %28 = getelementptr inbounds nuw i8, ptr %26, i64 248
  %29 = load ptr, ptr %28, align 8, !tbaa !101
  %30 = getelementptr inbounds nuw i8, ptr %5, i64 128
  store ptr %29, ptr %30, align 8, !tbaa !101
  %31 = getelementptr inbounds nuw i8, ptr %29, i64 120
  store volatile ptr %5, ptr %31, align 8, !tbaa !100
  %32 = getelementptr inbounds nuw i8, ptr %5, i64 120
  store ptr %27, ptr %32, align 8, !tbaa !100
  store ptr %5, ptr %28, align 8, !tbaa !101
  %33 = getelementptr inbounds nuw i8, ptr %26, i64 264
  %34 = load volatile i64, ptr %33, align 8, !tbaa !102
  %35 = add i64 %34, 1
  store volatile i64 %35, ptr %33, align 8, !tbaa !102
  br label %64

36:                                               ; preds = %pmix_obj_new_tma.exit
  %37 = load i64, ptr getelementptr inbounds nuw (i8, ptr @pmix_list_t_class, i64 56), align 8, !tbaa !130
  %38 = call noalias noundef ptr @malloc(i64 noundef %37) #22
  %39 = load i32, ptr @pmix_class_init_epoch, align 4, !tbaa !51
  %40 = load i32, ptr getelementptr inbounds nuw (i8, ptr @pmix_list_t_class, i64 32), align 8, !tbaa !60
  %.not.i6 = icmp eq i32 %39, %40
  br i1 %.not.i6, label %42, label %41

41:                                               ; preds = %36
  call void @pmix_class_initialize(ptr noundef nonnull @pmix_list_t_class) #17
  br label %42

42:                                               ; preds = %41, %36
  %.not22.i7 = icmp eq ptr %38, null
  br i1 %.not22.i7, label %pmix_obj_new_tma.exit12, label %43

43:                                               ; preds = %42
  %44 = call i32 @pthread_mutex_init(ptr noundef nonnull %38, ptr noundef null) #17
  %45 = getelementptr inbounds nuw i8, ptr %38, i64 40
  store ptr @pmix_list_t_class, ptr %45, align 8, !tbaa !53
  %46 = getelementptr inbounds nuw i8, ptr %38, i64 48
  store i32 1, ptr %46, align 8, !tbaa !52
  %47 = getelementptr inbounds nuw i8, ptr %38, i64 56
  %48 = getelementptr inbounds nuw i8, ptr %38, i64 96
  call void @llvm.memset.p0.i64(ptr noundef nonnull align 8 dereferenceable(32) %47, i8 0, i64 32, i1 false)
  call void @llvm.memset.p0.i64(ptr noundef nonnull align 8 dereferenceable(24) %48, i8 0, i64 24, i1 false)
  %49 = load ptr, ptr getelementptr inbounds nuw (i8, ptr @pmix_list_t_class, i64 40), align 8, !tbaa !61
  %50 = load ptr, ptr %49, align 8, !tbaa !32
  %.not6.i.i8 = icmp eq ptr %50, null
  br i1 %.not6.i.i8, label %pmix_obj_new_tma.exit12, label %.lr.ph.i.i9

.lr.ph.i.i9:                                      ; preds = %43, %.lr.ph.i.i9
  %51 = phi ptr [ %53, %.lr.ph.i.i9 ], [ %50, %43 ]
  %.07.i.i10 = phi ptr [ %52, %.lr.ph.i.i9 ], [ %49, %43 ]
  call void %51(ptr noundef nonnull %38) #17
  %52 = getelementptr inbounds nuw i8, ptr %.07.i.i10, i64 8
  %53 = load ptr, ptr %52, align 8, !tbaa !32
  %.not.i.i11 = icmp eq ptr %53, null
  br i1 %.not.i.i11, label %pmix_obj_new_tma.exit12, label %.lr.ph.i.i9, !llvm.loop !62

pmix_obj_new_tma.exit12:                          ; preds = %.lr.ph.i.i9, %42, %43
  store ptr %38, ptr %3, align 8, !tbaa !158
  %54 = getelementptr inbounds nuw i8, ptr %38, i64 120
  %55 = getelementptr inbounds nuw i8, ptr %38, i64 248
  %56 = load ptr, ptr %55, align 8, !tbaa !101
  %57 = getelementptr inbounds nuw i8, ptr %5, i64 128
  store ptr %56, ptr %57, align 8, !tbaa !101
  %58 = getelementptr inbounds nuw i8, ptr %56, i64 120
  store volatile ptr %5, ptr %58, align 8, !tbaa !100
  %59 = getelementptr inbounds nuw i8, ptr %5, i64 120
  store ptr %54, ptr %59, align 8, !tbaa !100
  store ptr %5, ptr %55, align 8, !tbaa !101
  %60 = getelementptr inbounds nuw i8, ptr %38, i64 264
  %61 = load volatile i64, ptr %60, align 8, !tbaa !102
  %62 = add i64 %61, 1
  store volatile i64 %62, ptr %60, align 8, !tbaa !102
  %63 = call i32 @prte_set_attribute(ptr noundef nonnull %23, i16 noundef zeroext 252, i1 noundef zeroext false, ptr noundef %38, i16 noundef zeroext 31) #17
  br label %64

64:                                               ; preds = %pmix_obj_new_tma.exit12, %25
  call void @llvm.lifetime.end.p0(i64 8, ptr nonnull %3) #17
  ret i32 0
}